target datalayout = "e-m:e-p270:32:32-p271:32:32-p272:64:64-i64:64-i128:128-f80:128-n8:16:32:64-S128"
target triple = "x86_64-unknown-linux-gnu"

@qemu_host_page_mask = external global i64, align 8
@qemu_host_page_size = external global i64, align 8
@reserved_va = external global i64, align 8
@guest_base = external global i64, align 8

; Function Attrs: nounwind sspstrong uwtable
define internal ptr @g2h_untagged(i64 noundef %x) #0 {
entry:
  %x.addr = alloca i64, align 8
  store i64 %x, ptr %x.addr, align 8
  %0 = load i64, ptr %x.addr, align 8
  %1 = load i64, ptr @guest_base, align 8
  %add = add i64 %0, %1
  %2 = inttoptr i64 %add to ptr
  ret ptr %2
}

; Function Attrs: nounwind sspstrong uwtable
define internal i32 @mmap_reserve_or_unmap(i64 noundef %start, i64 noundef %len) #0 {
entry:
  %retval = alloca i32, align 4
  %start.addr = alloca i64, align 8
  %len.addr = alloca i64, align 8
  %real_start = alloca i64, align 8
  %real_last = alloca i64, align 8
  %real_len = alloca i64, align 8
  %last = alloca i64, align 8
  %a = alloca i64, align 8
  %host_start = alloca ptr, align 8
  %prot = alloca i32, align 4
  %ptr = alloca ptr, align 8
  store i64 %start, ptr %start.addr, align 8
  store i64 %len, ptr %len.addr, align 8
  %0 = load i64, ptr %start.addr, align 8
  %1 = load i64, ptr %len.addr, align 8
  %add = add i64 %0, %1
  %sub = sub i64 %add, 1
  store i64 %sub, ptr %last, align 8
  %2 = load i64, ptr %start.addr, align 8
  %3 = load i64, ptr @qemu_host_page_mask, align 8
  %and = and i64 %2, %3
  store i64 %and, ptr %real_start, align 8
  %4 = load i64, ptr %last, align 8
  %5 = load i64, ptr @qemu_host_page_size, align 8
  %add1 = add i64 %4, %5
  %sub2 = sub i64 %add1, 1
  %6 = load i64, ptr @qemu_host_page_size, align 8
  %sub3 = sub i64 0, %6
  %and4 = and i64 %sub2, %sub3
  %sub5 = sub i64 %and4, 1
  store i64 %sub5, ptr %real_last, align 8
  %7 = load i64, ptr %real_last, align 8
  %8 = load i64, ptr %real_start, align 8
  %sub6 = sub i64 %7, %8
  %9 = load i64, ptr @qemu_host_page_size, align 8
  %cmp = icmp ult i64 %sub6, %9
  br i1 %cmp, label %if.then, label %if.else

if.then:                                          ; preds = %entry
  store i32 0, ptr %prot, align 4
  %10 = load i64, ptr %real_start, align 8
  store i64 %10, ptr %a, align 8
  br label %for.cond

for.cond:                                         ; preds = %for.inc, %if.then
  %11 = load i64, ptr %a, align 8
  %12 = load i64, ptr %start.addr, align 8
  %cmp7 = icmp ult i64 %11, %12
  br i1 %cmp7, label %for.body, label %for.end

for.body:                                         ; preds = %for.cond
  %13 = load i64, ptr %a, align 8
  %call = call i32 @page_get_flags(i64 noundef %13)
  %14 = load i32, ptr %prot, align 4
  %or = or i32 %14, %call
  store i32 %or, ptr %prot, align 4
  br label %for.inc

for.inc:                                          ; preds = %for.body
  %15 = load i64, ptr %a, align 8
  %add8 = add i64 %15, 4096
  store i64 %add8, ptr %a, align 8
  br label %for.cond, !llvm.loop !14

for.end:                                          ; preds = %for.cond
  %16 = load i64, ptr %last, align 8
  store i64 %16, ptr %a, align 8
  br label %for.cond9

for.cond9:                                        ; preds = %for.inc15, %for.end
  %17 = load i64, ptr %a, align 8
  %18 = load i64, ptr %real_last, align 8
  %cmp10 = icmp ult i64 %17, %18
  br i1 %cmp10, label %for.body11, label %for.end17

for.body11:                                       ; preds = %for.cond9
  %19 = load i64, ptr %a, align 8
  %add12 = add i64 %19, 1
  %call13 = call i32 @page_get_flags(i64 noundef %add12)
  %20 = load i32, ptr %prot, align 4
  %or14 = or i32 %20, %call13
  store i32 %or14, ptr %prot, align 4
  br label %for.inc15

for.inc15:                                        ; preds = %for.body11
  %21 = load i64, ptr %a, align 8
  %add16 = add i64 %21, 4096
  store i64 %add16, ptr %a, align 8
  br label %for.cond9, !llvm.loop !15

for.end17:                                        ; preds = %for.cond9
  %22 = load i32, ptr %prot, align 4
  %cmp18 = icmp ne i32 %22, 0
  br i1 %cmp18, label %if.then19, label %if.end

if.then19:                                        ; preds = %for.end17
  store i32 0, ptr %retval, align 4
  br label %return

if.end:                                           ; preds = %for.end17
  br label %if.end48

if.else:                                          ; preds = %entry
  store i32 0, ptr %prot, align 4
  %23 = load i64, ptr %real_start, align 8
  store i64 %23, ptr %a, align 8
  br label %for.cond20

for.cond20:                                       ; preds = %for.inc25, %if.else
  %24 = load i64, ptr %a, align 8
  %25 = load i64, ptr %start.addr, align 8
  %cmp21 = icmp ult i64 %24, %25
  br i1 %cmp21, label %for.body22, label %for.end27

for.body22:                                       ; preds = %for.cond20
  %26 = load i64, ptr %a, align 8
  %call23 = call i32 @page_get_flags(i64 noundef %26)
  %27 = load i32, ptr %prot, align 4
  %or24 = or i32 %27, %call23
  store i32 %or24, ptr %prot, align 4
  br label %for.inc25

for.inc25:                                        ; preds = %for.body22
  %28 = load i64, ptr %a, align 8
  %add26 = add i64 %28, 4096
  store i64 %add26, ptr %a, align 8
  br label %for.cond20, !llvm.loop !16

for.end27:                                        ; preds = %for.cond20
  %29 = load i32, ptr %prot, align 4
  %cmp28 = icmp ne i32 %29, 0
  br i1 %cmp28, label %if.then29, label %if.end31

if.then29:                                        ; preds = %for.end27
  %30 = load i64, ptr @qemu_host_page_size, align 8
  %31 = load i64, ptr %real_start, align 8
  %add30 = add i64 %31, %30
  store i64 %add30, ptr %real_start, align 8
  br label %if.end31

if.end31:                                         ; preds = %if.then29, %for.end27
  store i32 0, ptr %prot, align 4
  %32 = load i64, ptr %last, align 8
  store i64 %32, ptr %a, align 8
  br label %for.cond32

for.cond32:                                       ; preds = %for.inc38, %if.end31
  %33 = load i64, ptr %a, align 8
  %34 = load i64, ptr %real_last, align 8
  %cmp33 = icmp ult i64 %33, %34
  br i1 %cmp33, label %for.body34, label %for.end40

for.body34:                                       ; preds = %for.cond32
  %35 = load i64, ptr %a, align 8
  %add35 = add i64 %35, 1
  %call36 = call i32 @page_get_flags(i64 noundef %add35)
  %36 = load i32, ptr %prot, align 4
  %or37 = or i32 %36, %call36
  store i32 %or37, ptr %prot, align 4
  br label %for.inc38

for.inc38:                                        ; preds = %for.body34
  %37 = load i64, ptr %a, align 8
  %add39 = add i64 %37, 4096
  store i64 %add39, ptr %a, align 8
  br label %for.cond32, !llvm.loop !17

for.end40:                                        ; preds = %for.cond32
  %38 = load i32, ptr %prot, align 4
  %cmp41 = icmp ne i32 %38, 0
  br i1 %cmp41, label %if.then42, label %if.end44

if.then42:                                        ; preds = %for.end40
  %39 = load i64, ptr @qemu_host_page_size, align 8
  %40 = load i64, ptr %real_last, align 8
  %sub43 = sub i64 %40, %39
  store i64 %sub43, ptr %real_last, align 8
  br label %if.end44

if.end44:                                         ; preds = %if.then42, %for.end40
  %41 = load i64, ptr %real_last, align 8
  %42 = load i64, ptr %real_start, align 8
  %cmp45 = icmp ult i64 %41, %42
  br i1 %cmp45, label %if.then46, label %if.end47

if.then46:                                        ; preds = %if.end44
  store i32 0, ptr %retval, align 4
  br label %return

if.end47:                                         ; preds = %if.end44
  br label %if.end48

if.end48:                                         ; preds = %if.end47, %if.end
  %43 = load i64, ptr %real_last, align 8
  %44 = load i64, ptr %real_start, align 8
  %sub49 = sub i64 %43, %44
  %add50 = add i64 %sub49, 1
  store i64 %add50, ptr %real_len, align 8
  %45 = load i64, ptr %real_start, align 8
  %call51 = call ptr @g2h_untagged(i64 noundef %45)
  store ptr %call51, ptr %host_start, align 8
  %46 = load i64, ptr @reserved_va, align 8
  %tobool = icmp ne i64 %46, 0
  br i1 %tobool, label %if.then52, label %if.end55

if.then52:                                        ; preds = %if.end48
  %47 = load ptr, ptr %host_start, align 8
  %48 = load i64, ptr %real_len, align 8
  %call53 = call ptr @mmap64(ptr noundef %47, i64 noundef %48, i32 noundef 0, i32 noundef 16434, i32 noundef -1, i64 noundef 0) #8
  store ptr %call53, ptr %ptr, align 8
  %49 = load ptr, ptr %ptr, align 8
  %50 = load ptr, ptr %host_start, align 8
  %cmp54 = icmp eq ptr %49, %50
  %cond = select i1 %cmp54, i32 0, i32 -1
  store i32 %cond, ptr %retval, align 4
  br label %return

if.end55:                                         ; preds = %if.end48
  %51 = load ptr, ptr %host_start, align 8
  %52 = load i64, ptr %real_len, align 8
  %call56 = call i32 @munmap(ptr noundef %51, i64 noundef %52) #8
  store i32 %call56, ptr %retval, align 4
  br label %return

return:                                           ; preds = %if.end55, %if.then52, %if.then46, %if.then19
  %53 = load i32, ptr %retval, align 4
  ret i32 %53
}