; Function Attrs: nounwind sspstrong uwtable
define internal fastcc i32 @mmap_reserve_or_unmap(i64 noundef %start, i64 noundef %len) unnamed_addr #0 {
entry:
  %add = add i64 %start, -1
  %sub = add i64 %add, %len
  %0 = load i64, ptr @qemu_host_page_mask, align 8
  %and = and i64 %0, %start
  %1 = load i64, ptr @qemu_host_page_size, align 8
  %add1 = add i64 %sub, -1
  %sub2 = add i64 %add1, %1
  %sub3 = sub i64 0, %1
  %and4 = and i64 %sub2, %sub3
  %sub5 = add i64 %and4, -1
  %sub6 = sub i64 %sub5, %and
  %cmp = icmp ult i64 %sub6, %1
  %cmp744.not = icmp eq i64 %and, %start
  br i1 %cmp, label %for.cond.preheader, label %for.cond20.preheader

for.cond20.preheader:                             ; preds = %entry
  br i1 %cmp744.not, label %for.end27, label %for.body22

for.cond.preheader:                               ; preds = %entry
  br i1 %cmp744.not, label %for.cond9.preheader, label %for.body

for.cond9.preheader:                              ; preds = %for.body, %for.cond.preheader
  %prot.0.lcssa = phi i32 [ 0, %for.cond.preheader ], [ %or, %for.body ]
  %cmp1048 = icmp ult i64 %sub, %sub5
  br i1 %cmp1048, label %for.body11, label %for.end17

for.body:                                         ; preds = %for.cond.preheader, %for.body
  %prot.046 = phi i32 [ %or, %for.body ], [ 0, %for.cond.preheader ]
  %a.045 = phi i64 [ %add8, %for.body ], [ %and, %for.cond.preheader ]
  %call = tail call i32 @page_get_flags(i64 noundef %a.045) #14
  %or = or i32 %call, %prot.046
  %add8 = add i64 %a.045, 4096
  %cmp7 = icmp ult i64 %add8, %start
  br i1 %cmp7, label %for.body, label %for.cond9.preheader, !llvm.loop !14

for.body11:                                       ; preds = %for.cond9.preheader, %for.body11
  %prot.150 = phi i32 [ %or14, %for.body11 ], [ %prot.0.lcssa, %for.cond9.preheader ]
  %a.149 = phi i64 [ %add16, %for.body11 ], [ %sub, %for.cond9.preheader ]
  %add12 = add nuw i64 %a.149, 1
  %call13 = tail call i32 @page_get_flags(i64 noundef %add12) #14
  %or14 = or i32 %call13, %prot.150
  %add16 = add i64 %a.149, 4096
  %cmp10 = icmp ult i64 %add16, %sub5
  br i1 %cmp10, label %for.body11, label %for.end17, !llvm.loop !15

for.end17:                                        ; preds = %for.body11, %for.cond9.preheader
  %prot.1.lcssa = phi i32 [ %prot.0.lcssa, %for.cond9.preheader ], [ %or14, %for.body11 ]
  %cmp18.not = icmp eq i32 %prot.1.lcssa, 0
  br i1 %cmp18.not, label %if.end48, label %return

for.body22:                                       ; preds = %for.cond20.preheader, %for.body22
  %prot.239 = phi i32 [ %or24, %for.body22 ], [ 0, %for.cond20.preheader ]
  %a.238 = phi i64 [ %add26, %for.body22 ], [ %and, %for.cond20.preheader ]
  %call23 = tail call i32 @page_get_flags(i64 noundef %a.238) #14
  %or24 = or i32 %call23, %prot.239
  %add26 = add i64 %a.238, 4096
  %cmp21 = icmp ult i64 %add26, %start
  br i1 %cmp21, label %for.body22, label %for.end27.loopexit, !llvm.loop !16

for.end27.loopexit:                               ; preds = %for.body22
  %.pre = load i64, ptr @qemu_host_page_size, align 8
  %2 = icmp eq i32 %or24, 0
  %3 = select i1 %2, i64 0, i64 %.pre
  br label %for.end27

for.end27:                                        ; preds = %for.end27.loopexit, %for.cond20.preheader
  %prot.2.lcssa = phi i64 [ 0, %for.cond20.preheader ], [ %3, %for.end27.loopexit ]
  %real_start.1 = add i64 %prot.2.lcssa, %and
  %cmp3340 = icmp ult i64 %sub, %sub5
  br i1 %cmp3340, label %for.body34, label %for.end40

for.body34:                                       ; preds = %for.end27, %for.body34
  %prot.342 = phi i32 [ %or37, %for.body34 ], [ 0, %for.end27 ]
  %a.341 = phi i64 [ %add39, %for.body34 ], [ %sub, %for.end27 ]
  %add35 = add nuw i64 %a.341, 1
  %call36 = tail call i32 @page_get_flags(i64 noundef %add35) #14
  %or37 = or i32 %call36, %prot.342
  %add39 = add i64 %a.341, 4096
  %cmp33 = icmp ult i64 %add39, %sub5
  br i1 %cmp33, label %for.body34, label %for.end40.loopexit, !llvm.loop !17

for.end40.loopexit:                               ; preds = %for.body34
  %.pre52 = load i64, ptr @qemu_host_page_size, align 8
  %4 = icmp eq i32 %or37, 0
  %5 = select i1 %4, i64 0, i64 %.pre52
  br label %for.end40

for.end40:                                        ; preds = %for.end40.loopexit, %for.end27
  %prot.3.lcssa = phi i64 [ 0, %for.end27 ], [ %5, %for.end40.loopexit ]
  %real_last.1 = sub i64 %sub5, %prot.3.lcssa
  %cmp45 = icmp ult i64 %real_last.1, %real_start.1
  br i1 %cmp45, label %return, label %for.end40.if.end48_crit_edge

for.end40.if.end48_crit_edge:                     ; preds = %for.end40
  %.pre53 = sub nuw i64 %real_last.1, %real_start.1
  br label %if.end48

if.end48:                                         ; preds = %for.end40.if.end48_crit_edge, %for.end17
  %sub49.pre-phi = phi i64 [ %.pre53, %for.end40.if.end48_crit_edge ], [ %sub6, %for.end17 ]
  %real_start.0 = phi i64 [ %real_start.1, %for.end40.if.end48_crit_edge ], [ %and, %for.end17 ]
  %add50 = add i64 %sub49.pre-phi, 1
  %6 = load i64, ptr @guest_base, align 8
  %add.i = add i64 %6, %real_start.0
  %7 = inttoptr i64 %add.i to ptr
  %8 = load i64, ptr @reserved_va, align 8
  %tobool.not = icmp eq i64 %8, 0
  br i1 %tobool.not, label %if.end55, label %if.then52

if.then52:                                        ; preds = %if.end48
  %call53 = tail call ptr @mmap64(ptr noundef %7, i64 noundef %add50, i32 noundef 0, i32 noundef 16434, i32 noundef -1, i64 noundef 0) #14
  %cmp54 = icmp ne ptr %call53, %7
  %cond = sext i1 %cmp54 to i32
  br label %return

if.end55:                                         ; preds = %if.end48
  %call56 = tail call i32 @munmap(ptr noundef %7, i64 noundef %add50) #14
  br label %return

return:                                           ; preds = %for.end40, %for.end17, %if.end55, %if.then52
  %retval.0 = phi i32 [ %cond, %if.then52 ], [ %call56, %if.end55 ], [ 0, %for.end17 ], [ 0, %for.end40 ]
  ret i32 %retval.0
}